#include <math.h>
#include <stdio.h>
#include <stdlib.h>
#include <string.h>

int reverse(int num)
{
 int f=1,s=0;
 if (num<0)
   {
   f=0;
   num=-num;
   }
 for (;num!=0;)
   {
   s=s*10+num%10;
   num=num/10;
   }
 if (f==0)
   s=-s;
 return(s);
}
void main()
{
 int i,n;
 for (i=1;i<=6;i++)
   {
   scanf("%d",&n);
   printf("%d\n",reverse(n));
   }
}